; Music Test
; To make sounds write to 8-bit latch with
; 	Most Significant bit is enable sound
; 	Bottom 7 bits are piano key

notes:	.long 0xABA9A7A9
notes1:	.long 0xABABAB00

;
; Test code
;
00000000	42600000		lix		DAR,notes.lower
nextNote:
00000001	68806000		ldbp	r8
00000002	D4000015		bsr		wr7Seg8Dig
00000003	D400000F		bsr 	setNote
00000004	A0408000		push	r8
00000005	428002EE		lix		r8,750			; count for 10 mSec
00000006	D4000016		bsr		delay_mS		; call delay_ms
00000007	A1804000		pull	r8
00000008	38380000		cmp		r8,r0
00000009	D1000006		beq		looper1
0000000a	42800000		lix		r8,0
0000000b	D4000007		bsr 	setNote
;	bsr		enableBuzzer
0000000c	42800019		lix		r8,25			; count for 100 mSec
0000000d	D400000F		bsr		delay_mS		; call delay_ms
;	bsr		disableBuzzer
0000000e	C0FFFFF3		bra		nextNote
looper1:
0000000f	42800000		lix		r8,0
00000010	D4000002		bsr 	setNote
loopForever:
00000011	C0000000		bra		loopForever
	
;
; setNote - Set the note
; pass note in r8
;

setNote:
00000012	A0405000		push	PAR
00000013	42504000		lix		PAR,0x4000
00000014	81508000		spb		r8
00000015	A1504000		pull	PAR
00000016	A1704000		pull	PC

; wr7Seg8Dig
; passed r8 - value to send to the 7 seg display

wr7Seg8Dig:
00000017	A0405000		push	PAR
00000018	42503000		lix		PAR,0x3000		; Seven Segment LED lines
00000019	85508000		spl		r8				; Write out LED bits
0000001a	A1504000		pull	PAR
0000001b	A1704000		pull	PC

; delay_mS - delay for the number of mSecs passed in r8
; pass mSec delay in r8
; Routine uses r9

delay_mS:
0000001c	A0408000		push	r8
0000001d	A0409000		push	r9
0000001e	A0405000		push	PAR
0000001f	42503802		lix		PAR,0x3802		; address of the mSec counter
00000020	84905000		lpl		r9				; read the peripheral counter into r9
00000021	20898000		add		r8,r9,r8		; terminal counter to wait until is in r8
loop_delay_mS:
00000022	84905000		lpl		r9				; check the elapsed time counter
00000023	38389000		cmp		r8,r9
00000024	CCFFFFFE		blt		loop_delay_mS
00000025	A1504000		pull	PAR
00000026	A1904000		pull	r9
00000027	A1804000		pull	r8
00000028	A1704000		pull	PC
;
; enableBuzzer
;

enableBuzzer:
00000029	A0409000		push	r9
0000002a	A0408000		push	r8
0000002b	A0405000		push	PAR
0000002c	42900010		lix		r9,0x0010		; Buzzer Enable line
0000002d	42502800		lix		PAR,0x2800
0000002e	84805000		lpl		r8
0000002f	28889000		or		r8,r8,r9
00000030	85508000		spl		r8
00000031	A1504000		pull	PAR
00000032	A1804000		pull	r8
00000033	A1904000		pull	r9
00000034	A1704000		pull	PC

;
; disableBuzzer
;

disableBuzzer:
00000035	A0409000		push	r9
00000036	A0408000		push	r8
00000037	A0405000		push	PAR
00000038	4290FFEF		lix		r9,0xffef		; Buzzer Disable line
00000039	42502800		lix		PAR,0x2800
0000003a	84805000		lpl		r8
0000003b	2A889000		and		r8,r8,r9
0000003c	85508000		spl		r8
0000003d	A1504000		pull	PAR
0000003e	A1804000		pull	r8
0000003f	A1904000		pull	r9
00000040	A1704000		pull	PC
	